; Function Attrs: nofree norecurse nosync nounwind memory(readwrite, inaccessiblemem: none) uwtable
define void @Gia_ManCreateValueRefs(ptr noundef readonly captures(none) %0) local_unnamed_addr #1 {
  %2 = getelementptr i8, ptr %0, i64 32
  %3 = getelementptr inbounds nuw i8, ptr %0, i64 24
  %4 = load i32, ptr %3, align 8
  %5 = icmp sgt i32 %4, 0
  br i1 %5, label %.lr.ph, label %.critedge

.lr.ph:                                           ; preds = %1, %30
  %indvars.iv = phi i64 [ %indvars.iv.next, %30 ], [ 0, %1 ]
  %.val = load ptr, ptr %2, align 8
  %6 = getelementptr inbounds nuw %struct.Gia_Obj_t_, ptr %.val, i64 %indvars.iv
  %.not = icmp eq ptr %.val, null
  br i1 %.not, label %.critedge, label %7

7:                                                ; preds = %.lr.ph
  %8 = getelementptr inbounds nuw i8, ptr %6, i64 8
  store i32 0, ptr %8, align 4
  %.val15 = load i64, ptr %6, align 4
  %9 = and i64 %.val15, 2147483648
  %.not.i = icmp eq i64 %9, 0
  %10 = and i64 %.val15, 536870911
  %11 = icmp ne i64 %10, 536870911
  %narrow.i = and i1 %.not.i, %11
  br i1 %narrow.i, label %12, label %25

12:                                               ; preds = %7
  %13 = sub nsw i64 0, %10
  %14 = getelementptr inbounds %struct.Gia_Obj_t_, ptr %6, i64 %13, i32 1
  %15 = load i32, ptr %14, align 4
  %16 = add i32 %15, 1
  store i32 %16, ptr %14, align 4
  %17 = trunc i64 %.val15 to i32
  %18 = and i32 %17, 536870911
  %19 = lshr i64 %.val15, 32
  %20 = trunc nuw i64 %19 to i32
  %21 = and i32 %20, 536870911
  %22 = icmp eq i32 %18, %21
  %.not.i18 = icmp ne i32 %18, 536870911
  %or.cond.not.i = and i1 %.not.i18, %22
  br i1 %or.cond.not.i, label %30, label %23

23:                                               ; preds = %12
  %24 = and i64 %19, 536870911
  br label %.sink.split

25:                                               ; preds = %7
  %.not.i20 = icmp ne i64 %9, 0
  %narrow.i21 = and i1 %.not.i20, %11
  br i1 %narrow.i21, label %.sink.split, label %30

.sink.split:                                      ; preds = %25, %23
  %.sink = phi i64 [ %24, %23 ], [ %10, %25 ]
  %26 = sub nsw i64 0, %.sink
  %27 = getelementptr inbounds %struct.Gia_Obj_t_, ptr %6, i64 %26, i32 1
  %28 = load i32, ptr %27, align 4
  %29 = add i32 %28, 1
  store i32 %29, ptr %27, align 4
  br label %30

30:                                               ; preds = %.sink.split, %12, %25
  %indvars.iv.next = add nuw nsw i64 %indvars.iv, 1
  %31 = load i32, ptr %3, align 8
  %32 = sext i32 %31 to i64
  %33 = icmp slt i64 %indvars.iv.next, %32
  br i1 %33, label %.lr.ph, label %.critedge, !llvm.loop !32

.critedge:                                        ; preds = %.lr.ph, %30, %1
  ret void
}